; Function Attrs: mustprogress uwtable
define dso_local void @_ZNK4absl4Cord4FindESt17basic_string_viewIcSt11char_traitsIcEE(ptr dead_on_unwind noalias writable sret(%"class.absl::Cord::CharIterator") align 8 %0, ptr noundef nonnull align 8 dereferenceable(16) %1, i64 %2, ptr %3) local_unnamed_addr #3 align 2 {
  %5 = alloca %"class.std::basic_string_view", align 8
  %6 = alloca %"class.absl::Cord::CharIterator", align 8
  %7 = icmp eq i64 %2, 0
  br i1 %7, label %8, label %9

8:                                                ; preds = %4
  tail call void @_ZN4absl4Cord12CharIteratorC2EPKS0_(ptr noundef nonnull align 8 dereferenceable(152) %0, ptr noundef nonnull align 8 dereferenceable(16) %1)
  br label %28

9:                                                ; preds = %4
  %10 = load i8, ptr %1, align 8, !tbaa !13
  %11 = and i8 %10, 1
  %.not.i.i = icmp eq i8 %11, 0
  br i1 %.not.i.i, label %_ZNK4absl4Cord4sizeEv.exit, label %_ZNK4absl4Cord4sizeEv.exit.thread

_ZNK4absl4Cord4sizeEv.exit:                       ; preds = %9
  %12 = sext i8 %10 to i64
  %13 = lshr exact i64 %12, 1
  %14 = icmp ugt i64 %2, %13
  br i1 %14, label %19, label %_ZNK4absl4Cord4sizeEv.exit4

_ZNK4absl4Cord4sizeEv.exit.thread:                ; preds = %9
  %15 = getelementptr inbounds nuw i8, ptr %1, i64 8
  %16 = load ptr, ptr %15, align 8, !tbaa !13
  %17 = load i64, ptr %16, align 8, !tbaa !22
  %18 = icmp ugt i64 %2, %17
  br i1 %18, label %19, label %_ZNK4absl4Cord4sizeEv.exit4.thread

19:                                               ; preds = %_ZNK4absl4Cord4sizeEv.exit.thread, %_ZNK4absl4Cord4sizeEv.exit
  %20 = getelementptr inbounds nuw i8, ptr %0, i64 40
  tail call void @llvm.memset.p0.i64(ptr noundef nonnull align 8 dereferenceable(152) %0, i8 0, i64 152, i1 false), !alias.scope !167
  store i32 -1, ptr %20, align 8, !tbaa !99, !alias.scope !167
  br label %28

_ZNK4absl4Cord4sizeEv.exit4:                      ; preds = %_ZNK4absl4Cord4sizeEv.exit
  %21 = icmp eq i64 %2, %13
  br i1 %21, label %_ZN4absleqERKNS_4CordESt17basic_string_viewIcSt11char_traitsIcEE.exit, label %27

_ZNK4absl4Cord4sizeEv.exit4.thread:               ; preds = %_ZNK4absl4Cord4sizeEv.exit.thread
  %22 = icmp eq i64 %2, %17
  br i1 %22, label %_ZN4absleqERKNS_4CordESt17basic_string_viewIcSt11char_traitsIcEE.exit, label %27

_ZN4absleqERKNS_4CordESt17basic_string_viewIcSt11char_traitsIcEE.exit: ; preds = %_ZNK4absl4Cord4sizeEv.exit4.thread, %_ZNK4absl4Cord4sizeEv.exit4
  call void @llvm.lifetime.start.p0(i64 16, ptr nonnull %5)
  store i64 %2, ptr %5, align 8
  %23 = getelementptr inbounds nuw i8, ptr %5, i64 8
  store ptr %3, ptr %23, align 8
  %24 = call noundef zeroext i1 @_ZN4absl14GenericCompareIbSt17basic_string_viewIcSt11char_traitsIcEEEET_RKNS_4CordERKT0_m(ptr noundef nonnull align 8 dereferenceable(16) %1, ptr noundef nonnull align 8 dereferenceable(16) %5, i64 noundef %2)
  call void @llvm.lifetime.end.p0(i64 16, ptr nonnull %5)
  br i1 %24, label %25, label %_ZN4absleqERKNS_4CordESt17basic_string_viewIcSt11char_traitsIcEE.exit.thread

25:                                               ; preds = %_ZN4absleqERKNS_4CordESt17basic_string_viewIcSt11char_traitsIcEE.exit
  call void @_ZN4absl4Cord12CharIteratorC2EPKS0_(ptr noundef nonnull align 8 dereferenceable(152) %0, ptr noundef nonnull align 8 dereferenceable(16) %1)
  br label %28

_ZN4absleqERKNS_4CordESt17basic_string_viewIcSt11char_traitsIcEE.exit.thread: ; preds = %_ZN4absleqERKNS_4CordESt17basic_string_viewIcSt11char_traitsIcEE.exit
  %26 = getelementptr inbounds nuw i8, ptr %0, i64 40
  call void @llvm.memset.p0.i64(ptr noundef nonnull align 8 dereferenceable(152) %0, i8 0, i64 152, i1 false), !alias.scope !170
  store i32 -1, ptr %26, align 8, !tbaa !99, !alias.scope !170
  br label %28

27:                                               ; preds = %_ZNK4absl4Cord4sizeEv.exit4.thread, %_ZNK4absl4Cord4sizeEv.exit4
  call void @_ZN4absl4Cord12CharIteratorC2EPKS0_(ptr noundef nonnull align 8 dereferenceable(152) %6, ptr noundef nonnull align 8 dereferenceable(16) %1)
  call void @_ZNK4absl4Cord8FindImplENS0_12CharIteratorESt17basic_string_viewIcSt11char_traitsIcEE(ptr dead_on_unwind writable sret(%"class.absl::Cord::CharIterator") align 8 %0, ptr nonnull align 8 poison, ptr noundef nonnull byval(%"class.absl::Cord::CharIterator") align 8 %6, i64 %2, ptr %3)
  br label %28

28:                                               ; preds = %25, %_ZN4absleqERKNS_4CordESt17basic_string_viewIcSt11char_traitsIcEE.exit.thread, %27, %19, %8
  ret void
}